target datalayout = "e-m:e-p270:32:32-p271:32:32-p272:64:64-i64:64-i128:128-f80:128-n8:16:32:64-S128"
target triple = "x86_64-pc-linux-gnu"

%"struct.gmx::EnumerationArray" = type { [5 x %"class.std::__cxx11::basic_string"] }
%"class.std::__cxx11::basic_string" = type { %"struct.std::__cxx11::basic_string<char>::_Alloc_hider", i64, %union.anon }
%"struct.std::__cxx11::basic_string<char>::_Alloc_hider" = type { ptr }
%union.anon = type { i64, [8 x i8] }
%class.anon.2 = type { i8 }

@_Z14c_pbcTypeNamesB5cxx11 = global %"struct.gmx::EnumerationArray" zeroinitializer, align 8
@.str.8 = private unnamed_addr constant [121 x i8] c"generated/home/dtcxzyw/WorkSpace/Projects/compilers/llvm-opt-benchmark/bench/gromacs/gromacs/src/gromacs/pbcutil/pbc.cpp\00", align 1
@_ZL12bWarnedGuess = internal global i8 0, align 1
@stderr = external global ptr, align 8
@.str.25 = private unnamed_addr constant [88 x i8] c"WARNING: Unsupported box diagonal %f %f %f, will not use periodic boundary conditions\0A\0A\00", align 1
@debug = external global ptr, align 8
@.str.26 = private unnamed_addr constant [38 x i8] c"Guessed pbc = %s from the box matrix\0A\00", align 1
@.str.27 = private unnamed_addr constant [15 x i8] c"box != nullptr\00", align 1
@.str.28 = private unnamed_addr constant [34 x i8] c"guessPbcType requires a valid box\00", align 1
@"__PRETTY_FUNCTION__._ZZ12guessPbcTypePA3_KfENK3$_0clEv" = private unnamed_addr constant [76 x i8] c"auto guessPbcType(const real (*)[3])::(anonymous class)::operator()() const\00", align 1

; Function Attrs: mustprogress nounwind uwtable
define available_externally noundef ptr @_ZNKSt7__cxx1112basic_stringIcSt11char_traitsIcESaIcEE7_M_dataEv(ptr noundef nonnull align 8 dereferenceable(32) %0) #2 align 2 {
  %2 = alloca ptr, align 8
  store ptr %0, ptr %2, align 8, !tbaa !9
  %3 = load ptr, ptr %2, align 8
  %4 = getelementptr inbounds nuw %"class.std::__cxx11::basic_string", ptr %3, i32 0, i32 0
  %5 = getelementptr inbounds nuw %"struct.std::__cxx11::basic_string<char>::_Alloc_hider", ptr %4, i32 0, i32 0
  %6 = load ptr, ptr %5, align 8, !tbaa !25
  ret ptr %6
}

; Function Attrs: mustprogress nounwind uwtable
define available_externally noundef ptr @_ZNKSt7__cxx1112basic_stringIcSt11char_traitsIcESaIcEE5c_strEv(ptr noundef nonnull align 8 dereferenceable(32) %0) #2 align 2 {
  %2 = alloca ptr, align 8
  store ptr %0, ptr %2, align 8, !tbaa !9
  %3 = load ptr, ptr %2, align 8
  %4 = call noundef ptr @_ZNKSt7__cxx1112basic_stringIcSt11char_traitsIcESaIcEE7_M_dataEv(ptr noundef nonnull align 8 dereferenceable(32) %3)
  ret ptr %4
}

; Function Attrs: mustprogress nounwind uwtable
define linkonce_odr noundef nonnull align 8 dereferenceable(32) ptr @_ZNK3gmx16EnumerationArrayI7PbcTypeNSt7__cxx1112basic_stringIcSt11char_traitsIcESaIcEEELS1_5EEixES1_(ptr noundef nonnull align 8 dereferenceable(160) %0, i32 noundef %1) #2 comdat align 2 {
  %3 = alloca ptr, align 8
  %4 = alloca i32, align 4
  store ptr %0, ptr %3, align 8, !tbaa !15
  store i32 %1, ptr %4, align 4, !tbaa !34
  %5 = load ptr, ptr %3, align 8
  %6 = getelementptr inbounds nuw %"struct.gmx::EnumerationArray", ptr %5, i32 0, i32 0
  %7 = load i32, ptr %4, align 4, !tbaa !34
  %8 = sext i32 %7 to i64
  %9 = getelementptr inbounds nuw [5 x %"class.std::__cxx11::basic_string"], ptr %6, i64 0, i64 %8
  ret ptr %9
}

; Function Attrs: inlinehint mustprogress uwtable
define internal void @"_ZZ12guessPbcTypePA3_KfENK3$_0clEv"(ptr noundef nonnull align 1 dereferenceable(1) %0) #8 align 2 {
  %2 = alloca ptr, align 8
  store ptr %0, ptr %2, align 8, !tbaa !38
  call void @_ZN3gmx8internal13assertHandlerEPKcS2_S2_S2_i(ptr noundef @.str.27, ptr noundef @.str.28, ptr noundef @"__PRETTY_FUNCTION__._ZZ12guessPbcTypePA3_KfENK3$_0clEv", ptr noundef @.str.8, i32 noundef 247) #20
  unreachable
}

; Function Attrs: mustprogress uwtable
define noundef i32 @_Z12guessPbcTypePA3_Kf(ptr noundef %0) #3 {
  %2 = alloca ptr, align 8
  %3 = alloca i32, align 4
  %4 = alloca %class.anon.2, align 1
  store ptr %0, ptr %2, align 8, !tbaa !48
  call void @llvm.lifetime.start.p0(i64 4, ptr %3) #5
  %5 = load ptr, ptr %2, align 8, !tbaa !48
  %6 = icmp ne ptr %5, null
  call void @llvm.lifetime.start.p0(i64 1, ptr %4) #5
  br i1 %6, label %7, label %8

7:                                                ; preds = %1
  br label %9

8:                                                ; preds = %1
  call void @"_ZZ12guessPbcTypePA3_KfENK3$_0clEv"(ptr noundef nonnull align 1 dereferenceable(1) %4)
  br label %9

9:                                                ; preds = %8, %7
  call void @llvm.lifetime.end.p0(i64 1, ptr %4) #5
  %10 = load ptr, ptr %2, align 8, !tbaa !48
  %11 = getelementptr inbounds [3 x float], ptr %10, i64 0
  %12 = getelementptr inbounds [3 x float], ptr %11, i64 0, i64 0
  %13 = load float, ptr %12, align 4, !tbaa !50
  %14 = fcmp ogt float %13, 0.000000e+00
  br i1 %14, label %15, label %28

15:                                               ; preds = %9
  %16 = load ptr, ptr %2, align 8, !tbaa !48
  %17 = getelementptr inbounds [3 x float], ptr %16, i64 1
  %18 = getelementptr inbounds [3 x float], ptr %17, i64 0, i64 1
  %19 = load float, ptr %18, align 4, !tbaa !50
  %20 = fcmp ogt float %19, 0.000000e+00
  br i1 %20, label %21, label %28

21:                                               ; preds = %15
  %22 = load ptr, ptr %2, align 8, !tbaa !48
  %23 = getelementptr inbounds [3 x float], ptr %22, i64 2
  %24 = getelementptr inbounds [3 x float], ptr %23, i64 0, i64 2
  %25 = load float, ptr %24, align 4, !tbaa !50
  %26 = fcmp ogt float %25, 0.000000e+00
  br i1 %26, label %27, label %28

27:                                               ; preds = %21
  store i32 0, ptr %3, align 4, !tbaa !34
  br label %90

28:                                               ; preds = %21, %15, %9
  %29 = load ptr, ptr %2, align 8, !tbaa !48
  %30 = getelementptr inbounds [3 x float], ptr %29, i64 0
  %31 = getelementptr inbounds [3 x float], ptr %30, i64 0, i64 0
  %32 = load float, ptr %31, align 4, !tbaa !50
  %33 = fcmp ogt float %32, 0.000000e+00
  br i1 %33, label %34, label %47

34:                                               ; preds = %28
  %35 = load ptr, ptr %2, align 8, !tbaa !48
  %36 = getelementptr inbounds [3 x float], ptr %35, i64 1
  %37 = getelementptr inbounds [3 x float], ptr %36, i64 0, i64 1
  %38 = load float, ptr %37, align 4, !tbaa !50
  %39 = fcmp ogt float %38, 0.000000e+00
  br i1 %39, label %40, label %47

40:                                               ; preds = %34
  %41 = load ptr, ptr %2, align 8, !tbaa !48
  %42 = getelementptr inbounds [3 x float], ptr %41, i64 2
  %43 = getelementptr inbounds [3 x float], ptr %42, i64 0, i64 2
  %44 = load float, ptr %43, align 4, !tbaa !50
  %45 = fcmp oeq float %44, 0.000000e+00
  br i1 %45, label %46, label %47

46:                                               ; preds = %40
  store i32 2, ptr %3, align 4, !tbaa !34
  br label %89

47:                                               ; preds = %40, %34, %28
  %48 = load ptr, ptr %2, align 8, !tbaa !48
  %49 = getelementptr inbounds [3 x float], ptr %48, i64 0
  %50 = getelementptr inbounds [3 x float], ptr %49, i64 0, i64 0
  %51 = load float, ptr %50, align 4, !tbaa !50
  %52 = fcmp oeq float %51, 0.000000e+00
  br i1 %52, label %53, label %66

53:                                               ; preds = %47
  %54 = load ptr, ptr %2, align 8, !tbaa !48
  %55 = getelementptr inbounds [3 x float], ptr %54, i64 1
  %56 = getelementptr inbounds [3 x float], ptr %55, i64 0, i64 1
  %57 = load float, ptr %56, align 4, !tbaa !50
  %58 = fcmp oeq float %57, 0.000000e+00
  br i1 %58, label %59, label %66

59:                                               ; preds = %53
  %60 = load ptr, ptr %2, align 8, !tbaa !48
  %61 = getelementptr inbounds [3 x float], ptr %60, i64 2
  %62 = getelementptr inbounds [3 x float], ptr %61, i64 0, i64 2
  %63 = load float, ptr %62, align 4, !tbaa !50
  %64 = fcmp oeq float %63, 0.000000e+00
  br i1 %64, label %65, label %66

65:                                               ; preds = %59
  store i32 1, ptr %3, align 4, !tbaa !34
  br label %88

66:                                               ; preds = %59, %53, %47
  %67 = load i8, ptr @_ZL12bWarnedGuess, align 1, !tbaa !51, !range !53, !noundef !54
  %68 = trunc i8 %67 to i1
  br i1 %68, label %87, label %69

69:                                               ; preds = %66
  %70 = load ptr, ptr @stderr, align 8, !tbaa !39
  %71 = load ptr, ptr %2, align 8, !tbaa !48
  %72 = getelementptr inbounds [3 x float], ptr %71, i64 0
  %73 = getelementptr inbounds [3 x float], ptr %72, i64 0, i64 0
  %74 = load float, ptr %73, align 4, !tbaa !50
  %75 = fpext float %74 to double
  %76 = load ptr, ptr %2, align 8, !tbaa !48
  %77 = getelementptr inbounds [3 x float], ptr %76, i64 1
  %78 = getelementptr inbounds [3 x float], ptr %77, i64 0, i64 1
  %79 = load float, ptr %78, align 4, !tbaa !50
  %80 = fpext float %79 to double
  %81 = load ptr, ptr %2, align 8, !tbaa !48
  %82 = getelementptr inbounds [3 x float], ptr %81, i64 2
  %83 = getelementptr inbounds [3 x float], ptr %82, i64 0, i64 2
  %84 = load float, ptr %83, align 4, !tbaa !50
  %85 = fpext float %84 to double
  %86 = call i32 (ptr, ptr, ...) @fprintf(ptr noundef %70, ptr noundef @.str.25, double noundef %75, double noundef %80, double noundef %85) #5
  store i8 1, ptr @_ZL12bWarnedGuess, align 1, !tbaa !51
  br label %87

87:                                               ; preds = %69, %66
  store i32 1, ptr %3, align 4, !tbaa !34
  br label %88

88:                                               ; preds = %87, %65
  br label %89

89:                                               ; preds = %88, %46
  br label %90

90:                                               ; preds = %89, %27
  %91 = load ptr, ptr @debug, align 8, !tbaa !39
  %92 = icmp ne ptr %91, null
  br i1 %92, label %93, label %99

93:                                               ; preds = %90
  %94 = load ptr, ptr @debug, align 8, !tbaa !39
  %95 = load i32, ptr %3, align 4, !tbaa !34
  %96 = call noundef nonnull align 8 dereferenceable(32) ptr @_ZNK3gmx16EnumerationArrayI7PbcTypeNSt7__cxx1112basic_stringIcSt11char_traitsIcESaIcEEELS1_5EEixES1_(ptr noundef nonnull align 8 dereferenceable(160) @_Z14c_pbcTypeNamesB5cxx11, i32 noundef %95)
  %97 = call noundef ptr @_ZNKSt7__cxx1112basic_stringIcSt11char_traitsIcESaIcEE5c_strEv(ptr noundef nonnull align 8 dereferenceable(32) %96) #5
  %98 = call i32 (ptr, ptr, ...) @fprintf(ptr noundef %94, ptr noundef @.str.26, ptr noundef %97) #5
  br label %99

99:                                               ; preds = %93, %90
  %100 = load i32, ptr %3, align 4, !tbaa !34
  call void @llvm.lifetime.end.p0(i64 4, ptr %3) #5
  ret i32 %100
}