; Function Attrs: mustprogress uwtable
define noundef range(i32 0, 3) i32 @_Z12guessPbcTypePA3_Kf(ptr noundef readonly %0) local_unnamed_addr #1 {
  %.not = icmp eq ptr %0, null
  br i1 %.not, label %2, label %3

2:                                                ; preds = %1
  tail call void @_ZN3gmx8internal13assertHandlerEPKcS2_S2_S2_i(ptr noundef nonnull @.str.27, ptr noundef nonnull @.str.28, ptr noundef nonnull @"__PRETTY_FUNCTION__._ZZ12guessPbcTypePA3_KfENK3$_0clEv", ptr noundef nonnull @.str.8, i32 noundef 247) #28
  unreachable

3:                                                ; preds = %1
  %4 = load float, ptr %0, align 4, !tbaa !21
  %5 = fcmp ogt float %4, 0.000000e+00
  br i1 %5, label %6, label %18

6:                                                ; preds = %3
  %7 = getelementptr inbounds nuw i8, ptr %0, i64 16
  %8 = load float, ptr %7, align 4, !tbaa !21
  %9 = fcmp ogt float %8, 0.000000e+00
  br i1 %9, label %10, label %18

10:                                               ; preds = %6
  %11 = getelementptr inbounds nuw i8, ptr %0, i64 32
  %12 = load float, ptr %11, align 4, !tbaa !21
  %13 = fcmp ogt float %12, 0.000000e+00
  br i1 %13, label %39, label %14

14:                                               ; preds = %10
  %15 = getelementptr inbounds nuw i8, ptr %0, i64 32
  %16 = load float, ptr %15, align 4, !tbaa !21
  %17 = fcmp oeq float %16, 0.000000e+00
  br i1 %17, label %39, label %18

18:                                               ; preds = %6, %3, %14
  %19 = fcmp oeq float %4, 0.000000e+00
  br i1 %19, label %20, label %28

20:                                               ; preds = %18
  %21 = getelementptr inbounds nuw i8, ptr %0, i64 16
  %22 = load float, ptr %21, align 4, !tbaa !21
  %23 = fcmp oeq float %22, 0.000000e+00
  br i1 %23, label %24, label %28

24:                                               ; preds = %20
  %25 = getelementptr inbounds nuw i8, ptr %0, i64 32
  %26 = load float, ptr %25, align 4, !tbaa !21
  %27 = fcmp oeq float %26, 0.000000e+00
  br i1 %27, label %39, label %28

28:                                               ; preds = %24, %20, %18
  %.b15 = load i1, ptr @_ZL12bWarnedGuess, align 1
  br i1 %.b15, label %39, label %29

29:                                               ; preds = %28
  %30 = load ptr, ptr @stderr, align 8, !tbaa !24
  %31 = fpext float %4 to double
  %32 = getelementptr inbounds nuw i8, ptr %0, i64 16
  %33 = load float, ptr %32, align 4, !tbaa !21
  %34 = fpext float %33 to double
  %35 = getelementptr inbounds nuw i8, ptr %0, i64 32
  %36 = load float, ptr %35, align 4, !tbaa !21
  %37 = fpext float %36 to double
  %38 = tail call i32 (ptr, ptr, ...) @fprintf(ptr noundef %30, ptr noundef nonnull @.str.25, double noundef %31, double noundef %34, double noundef %37) #31
  store i1 true, ptr @_ZL12bWarnedGuess, align 1
  br label %39

39:                                               ; preds = %28, %29, %24, %14, %10
  %.0 = phi i32 [ 0, %10 ], [ 2, %14 ], [ 1, %24 ], [ 1, %29 ], [ 1, %28 ]
  %40 = load ptr, ptr @debug, align 8, !tbaa !24
  %.not16 = icmp eq ptr %40, null
  br i1 %.not16, label %46, label %41

41:                                               ; preds = %39
  %42 = zext nneg i32 %.0 to i64
  %43 = getelementptr inbounds nuw [5 x %"class.std::__cxx11::basic_string"], ptr @_Z14c_pbcTypeNamesB5cxx11, i64 0, i64 %42
  %44 = load ptr, ptr %43, align 8, !tbaa !12
  %45 = tail call i32 (ptr, ptr, ...) @fprintf(ptr noundef nonnull %40, ptr noundef nonnull @.str.26, ptr noundef %44) #20
  br label %46

46:                                               ; preds = %41, %39
  ret i32 %.0
}